target datalayout = "e-m:e-p270:32:32-p271:32:32-p272:64:64-i64:64-i128:128-f80:128-n8:16:32:64-S128"
target triple = "x86_64-pc-linux-gnu"

%struct.Nwk_Obj_t_ = type { ptr, ptr, ptr, %union.anon, i32, i32, i32, i32, float, float, float, i32, i32, i32, ptr }
%union.anon = type { ptr }

; Function Attrs: nounwind uwtable
define void @Nwk_ObjDeleteFanin(ptr noundef %0, ptr noundef %1) #0 {
  %3 = alloca ptr, align 8
  %4 = alloca ptr, align 8
  %5 = alloca i32, align 4
  %6 = alloca i32, align 4
  %7 = alloca i32, align 4
  %8 = alloca i32, align 4
  store ptr %0, ptr %3, align 8
  store ptr %1, ptr %4, align 8
  %9 = load ptr, ptr %3, align 8
  %10 = getelementptr inbounds %struct.Nwk_Obj_t_, ptr %9, i32 0, i32 11
  %11 = load i32, ptr %10, align 4
  %12 = load ptr, ptr %3, align 8
  %13 = getelementptr inbounds %struct.Nwk_Obj_t_, ptr %12, i32 0, i32 12
  %14 = load i32, ptr %13, align 8
  %15 = add nsw i32 %11, %14
  store i32 %15, ptr %7, align 4
  store i32 0, ptr %8, align 4
  store i32 0, ptr %5, align 4
  store i32 0, ptr %6, align 4
  br label %16

16:                                               ; preds = %50, %2
  %17 = load i32, ptr %5, align 4
  %18 = load i32, ptr %7, align 4
  %19 = icmp slt i32 %17, %18
  br i1 %19, label %20, label %53

20:                                               ; preds = %16
  %21 = load i32, ptr %8, align 4
  %22 = icmp ne i32 %21, 0
  br i1 %22, label %33, label %23

23:                                               ; preds = %20
  %24 = load ptr, ptr %3, align 8
  %25 = getelementptr inbounds %struct.Nwk_Obj_t_, ptr %24, i32 0, i32 14
  %26 = load ptr, ptr %25, align 8
  %27 = load i32, ptr %5, align 4
  %28 = sext i32 %27 to i64
  %29 = getelementptr inbounds ptr, ptr %26, i64 %28
  %30 = load ptr, ptr %29, align 8
  %31 = load ptr, ptr %4, align 8
  %32 = icmp ne ptr %30, %31
  br i1 %32, label %33, label %48

33:                                               ; preds = %23, %20
  %34 = load ptr, ptr %3, align 8
  %35 = getelementptr inbounds %struct.Nwk_Obj_t_, ptr %34, i32 0, i32 14
  %36 = load ptr, ptr %35, align 8
  %37 = load i32, ptr %5, align 4
  %38 = sext i32 %37 to i64
  %39 = getelementptr inbounds ptr, ptr %36, i64 %38
  %40 = load ptr, ptr %39, align 8
  %41 = load ptr, ptr %3, align 8
  %42 = getelementptr inbounds %struct.Nwk_Obj_t_, ptr %41, i32 0, i32 14
  %43 = load ptr, ptr %42, align 8
  %44 = load i32, ptr %6, align 4
  %45 = add nsw i32 %44, 1
  store i32 %45, ptr %6, align 4
  %46 = sext i32 %44 to i64
  %47 = getelementptr inbounds ptr, ptr %43, i64 %46
  store ptr %40, ptr %47, align 8
  br label %49

48:                                               ; preds = %23
  store i32 1, ptr %8, align 4
  br label %49

49:                                               ; preds = %48, %33
  br label %50

50:                                               ; preds = %49
  %51 = load i32, ptr %5, align 4
  %52 = add nsw i32 %51, 1
  store i32 %52, ptr %5, align 4
  br label %16, !llvm.loop !10

53:                                               ; preds = %16
  %54 = load ptr, ptr %3, align 8
  %55 = getelementptr inbounds %struct.Nwk_Obj_t_, ptr %54, i32 0, i32 11
  %56 = load i32, ptr %55, align 4
  %57 = add nsw i32 %56, -1
  store i32 %57, ptr %55, align 4
  %58 = load ptr, ptr %4, align 8
  %59 = getelementptr inbounds %struct.Nwk_Obj_t_, ptr %58, i32 0, i32 11
  %60 = load i32, ptr %59, align 4
  %61 = load ptr, ptr %4, align 8
  %62 = getelementptr inbounds %struct.Nwk_Obj_t_, ptr %61, i32 0, i32 12
  %63 = load i32, ptr %62, align 8
  %64 = add nsw i32 %60, %63
  store i32 %64, ptr %7, align 4
  store i32 0, ptr %8, align 4
  %65 = load ptr, ptr %4, align 8
  %66 = getelementptr inbounds %struct.Nwk_Obj_t_, ptr %65, i32 0, i32 11
  %67 = load i32, ptr %66, align 4
  store i32 %67, ptr %5, align 4
  store i32 %67, ptr %6, align 4
  br label %68

68:                                               ; preds = %102, %53
  %69 = load i32, ptr %5, align 4
  %70 = load i32, ptr %7, align 4
  %71 = icmp slt i32 %69, %70
  br i1 %71, label %72, label %105

72:                                               ; preds = %68
  %73 = load i32, ptr %8, align 4
  %74 = icmp ne i32 %73, 0
  br i1 %74, label %85, label %75

75:                                               ; preds = %72
  %76 = load ptr, ptr %4, align 8
  %77 = getelementptr inbounds %struct.Nwk_Obj_t_, ptr %76, i32 0, i32 14
  %78 = load ptr, ptr %77, align 8
  %79 = load i32, ptr %5, align 4
  %80 = sext i32 %79 to i64
  %81 = getelementptr inbounds ptr, ptr %78, i64 %80
  %82 = load ptr, ptr %81, align 8
  %83 = load ptr, ptr %3, align 8
  %84 = icmp ne ptr %82, %83
  br i1 %84, label %85, label %100

85:                                               ; preds = %75, %72
  %86 = load ptr, ptr %4, align 8
  %87 = getelementptr inbounds %struct.Nwk_Obj_t_, ptr %86, i32 0, i32 14
  %88 = load ptr, ptr %87, align 8
  %89 = load i32, ptr %5, align 4
  %90 = sext i32 %89 to i64
  %91 = getelementptr inbounds ptr, ptr %88, i64 %90
  %92 = load ptr, ptr %91, align 8
  %93 = load ptr, ptr %4, align 8
  %94 = getelementptr inbounds %struct.Nwk_Obj_t_, ptr %93, i32 0, i32 14
  %95 = load ptr, ptr %94, align 8
  %96 = load i32, ptr %6, align 4
  %97 = add nsw i32 %96, 1
  store i32 %97, ptr %6, align 4
  %98 = sext i32 %96 to i64
  %99 = getelementptr inbounds ptr, ptr %95, i64 %98
  store ptr %92, ptr %99, align 8
  br label %101

100:                                              ; preds = %75
  store i32 1, ptr %8, align 4
  br label %101

101:                                              ; preds = %100, %85
  br label %102

102:                                              ; preds = %101
  %103 = load i32, ptr %5, align 4
  %104 = add nsw i32 %103, 1
  store i32 %104, ptr %5, align 4
  br label %68, !llvm.loop !11

105:                                              ; preds = %68
  %106 = load ptr, ptr %4, align 8
  %107 = getelementptr inbounds %struct.Nwk_Obj_t_, ptr %106, i32 0, i32 12
  %108 = load i32, ptr %107, align 8
  %109 = add nsw i32 %108, -1
  store i32 %109, ptr %107, align 8
  ret void
}