; Function Attrs: nofree norecurse nosync nounwind memory(readwrite, inaccessiblemem: none) uwtable
define void @Nwk_ObjDeleteFanin(ptr noundef %0, ptr noundef %1) local_unnamed_addr #2 {
  %3 = getelementptr inbounds nuw i8, ptr %0, i64 60
  %4 = load i32, ptr %3, align 4
  %5 = getelementptr inbounds nuw i8, ptr %0, i64 64
  %6 = load i32, ptr %5, align 8
  %7 = add nsw i32 %6, %4
  %8 = icmp sgt i32 %7, 0
  br i1 %8, label %.lr.ph, label %._crit_edge

.lr.ph:                                           ; preds = %2
  %9 = getelementptr inbounds nuw i8, ptr %0, i64 72
  %wide.trip.count = zext nneg i32 %7 to i64
  br label %10

10:                                               ; preds = %.lr.ph, %16
  %indvars.iv = phi i64 [ 0, %.lr.ph ], [ %indvars.iv.next, %16 ]
  %.039 = phi i32 [ 0, %.lr.ph ], [ %.1, %16 ]
  %.02838 = phi i32 [ 0, %.lr.ph ], [ %.129, %16 ]
  %.not35 = icmp eq i32 %.039, 0
  %.pre = load ptr, ptr %9, align 8
  %11 = getelementptr inbounds nuw ptr, ptr %.pre, i64 %indvars.iv
  %12 = load ptr, ptr %11, align 8
  %.not36 = icmp eq ptr %12, %1
  %or.cond = select i1 %.not35, i1 %.not36, i1 false
  br i1 %or.cond, label %16, label %._crit_edge50

._crit_edge50:                                    ; preds = %10
  %13 = add nsw i32 %.02838, 1
  %14 = sext i32 %.02838 to i64
  %15 = getelementptr inbounds ptr, ptr %.pre, i64 %14
  store ptr %12, ptr %15, align 8
  br label %16

16:                                               ; preds = %10, %._crit_edge50
  %.129 = phi i32 [ %13, %._crit_edge50 ], [ %.02838, %10 ]
  %.1 = phi i32 [ %.039, %._crit_edge50 ], [ 1, %10 ]
  %indvars.iv.next = add nuw nsw i64 %indvars.iv, 1
  %exitcond.not = icmp eq i64 %indvars.iv.next, %wide.trip.count
  br i1 %exitcond.not, label %._crit_edge.loopexit, label %10, !llvm.loop !10

._crit_edge.loopexit:                             ; preds = %16
  %.pre52 = load i32, ptr %3, align 4
  br label %._crit_edge

._crit_edge:                                      ; preds = %._crit_edge.loopexit, %2
  %17 = phi i32 [ %.pre52, %._crit_edge.loopexit ], [ %4, %2 ]
  %18 = add nsw i32 %17, -1
  store i32 %18, ptr %3, align 4
  %19 = getelementptr inbounds nuw i8, ptr %1, i64 64
  %20 = load i32, ptr %19, align 8
  %21 = icmp sgt i32 %20, 0
  br i1 %21, label %.lr.ph44, label %._crit_edge45

.lr.ph44:                                         ; preds = %._crit_edge
  %22 = getelementptr inbounds nuw i8, ptr %1, i64 60
  %23 = load i32, ptr %22, align 4
  %24 = add nsw i32 %20, %23
  %25 = getelementptr inbounds nuw i8, ptr %1, i64 72
  %26 = sext i32 %23 to i64
  %27 = sext i32 %24 to i64
  br label %28

28:                                               ; preds = %.lr.ph44, %34
  %indvars.iv47 = phi i64 [ %26, %.lr.ph44 ], [ %indvars.iv.next48, %34 ]
  %.242 = phi i32 [ 0, %.lr.ph44 ], [ %.3, %34 ]
  %.23041 = phi i32 [ %23, %.lr.ph44 ], [ %.331, %34 ]
  %.not = icmp eq i32 %.242, 0
  %.pre53 = load ptr, ptr %25, align 8
  %29 = getelementptr inbounds ptr, ptr %.pre53, i64 %indvars.iv47
  %30 = load ptr, ptr %29, align 8
  %.not34 = icmp eq ptr %30, %0
  %or.cond58 = select i1 %.not, i1 %.not34, i1 false
  br i1 %or.cond58, label %34, label %._crit_edge54

._crit_edge54:                                    ; preds = %28
  %31 = add nsw i32 %.23041, 1
  %32 = sext i32 %.23041 to i64
  %33 = getelementptr inbounds ptr, ptr %.pre53, i64 %32
  store ptr %30, ptr %33, align 8
  br label %34

34:                                               ; preds = %28, %._crit_edge54
  %.331 = phi i32 [ %31, %._crit_edge54 ], [ %.23041, %28 ]
  %.3 = phi i32 [ %.242, %._crit_edge54 ], [ 1, %28 ]
  %indvars.iv.next48 = add nsw i64 %indvars.iv47, 1
  %35 = icmp slt i64 %indvars.iv.next48, %27
  br i1 %35, label %28, label %._crit_edge45.loopexit, !llvm.loop !11

._crit_edge45.loopexit:                           ; preds = %34
  %.pre57 = load i32, ptr %19, align 8
  br label %._crit_edge45

._crit_edge45:                                    ; preds = %._crit_edge45.loopexit, %._crit_edge
  %36 = phi i32 [ %.pre57, %._crit_edge45.loopexit ], [ %20, %._crit_edge ]
  %37 = add nsw i32 %36, -1
  store i32 %37, ptr %19, align 8
  ret void
}